target datalayout = "e-m:e-p270:32:32-p271:32:32-p272:64:64-i64:64-i128:128-f80:128-n8:16:32:64-S128"
target triple = "x86_64-pc-linux-gnu"

%struct.b2BodyId = type { i32, i16, i16 }
%struct.b2JointId = type { i32, i16, i16 }
%class.Donut = type <{ [7 x %struct.b2BodyId], [7 x %struct.b2JointId], i8, [3 x i8] }>

@_ZL13b2_nullBodyId = internal constant %struct.b2BodyId zeroinitializer, align 4
@_ZL14b2_nullJointId = internal constant %struct.b2JointId zeroinitializer, align 4

; Function Attrs: mustprogress uwtable
define dso_local void @_ZN5Donut7DespawnEv(ptr noundef nonnull align 4 dereferenceable(113) %0) #7 align 2 {
  %2 = alloca ptr, align 8
  %3 = alloca i32, align 4
  %4 = alloca %struct.b2BodyId, align 4
  store ptr %0, ptr %2, align 8, !tbaa !4
  %5 = load ptr, ptr %2, align 8
  call void @llvm.lifetime.start.p0(i64 4, ptr %3) #8
  store i32 0, ptr %3, align 4, !tbaa !9
  br label %6

6:                                                ; preds = %24, %1
  %7 = load i32, ptr %3, align 4, !tbaa !9
  %8 = icmp slt i32 %7, 7
  br i1 %8, label %10, label %9

9:                                                ; preds = %6
  call void @llvm.lifetime.end.p0(i64 4, ptr %3) #8
  br label %27

10:                                               ; preds = %6
  %11 = getelementptr inbounds nuw %class.Donut, ptr %5, i32 0, i32 0
  %12 = load i32, ptr %3, align 4, !tbaa !9
  %13 = sext i32 %12 to i64
  %14 = getelementptr inbounds [7 x %struct.b2BodyId], ptr %11, i64 0, i64 %13
  call void @llvm.memcpy.p0.p0.i64(ptr align 4 %4, ptr align 4 %14, i64 8, i1 false), !tbaa.struct !11
  %15 = load i64, ptr %4, align 4
  call void @b2DestroyBody(i64 %15)
  %16 = getelementptr inbounds nuw %class.Donut, ptr %5, i32 0, i32 0
  %17 = load i32, ptr %3, align 4, !tbaa !9
  %18 = sext i32 %17 to i64
  %19 = getelementptr inbounds [7 x %struct.b2BodyId], ptr %16, i64 0, i64 %18
  call void @llvm.memcpy.p0.p0.i64(ptr align 4 %19, ptr align 4 @_ZL13b2_nullBodyId, i64 8, i1 false), !tbaa.struct !11
  %20 = getelementptr inbounds nuw %class.Donut, ptr %5, i32 0, i32 1
  %21 = load i32, ptr %3, align 4, !tbaa !9
  %22 = sext i32 %21 to i64
  %23 = getelementptr inbounds [7 x %struct.b2JointId], ptr %20, i64 0, i64 %22
  call void @llvm.memcpy.p0.p0.i64(ptr align 4 %23, ptr align 4 @_ZL14b2_nullJointId, i64 8, i1 false), !tbaa.struct !11
  br label %24

24:                                               ; preds = %10
  %25 = load i32, ptr %3, align 4, !tbaa !9
  %26 = add nsw i32 %25, 1
  store i32 %26, ptr %3, align 4, !tbaa !9
  br label %6, !llvm.loop !54

27:                                               ; preds = %9
  %28 = getelementptr inbounds nuw %class.Donut, ptr %5, i32 0, i32 2
  store i8 0, ptr %28, align 4, !tbaa !16
  ret void
}