; Function Attrs: mustprogress uwtable
define dso_local void @_ZN5Donut7DespawnEv(ptr noundef nonnull align 4 captures(none) dereferenceable(113) %0) local_unnamed_addr #5 align 2 {
  %2 = getelementptr inbounds nuw i8, ptr %0, i64 56
  br label %5

3:                                                ; preds = %5
  %4 = getelementptr inbounds nuw i8, ptr %0, i64 112
  store i8 0, ptr %4, align 4, !tbaa !36
  ret void

5:                                                ; preds = %1, %5
  %indvars.iv = phi i64 [ 0, %1 ], [ %indvars.iv.next, %5 ]
  %6 = getelementptr inbounds nuw [7 x %struct.b2BodyId], ptr %0, i64 0, i64 %indvars.iv
  %.sroa.0.0.copyload = load i64, ptr %6, align 4
  tail call void @b2DestroyBody(i64 %.sroa.0.0.copyload)
  store i64 0, ptr %6, align 4
  %7 = getelementptr inbounds nuw [7 x %struct.b2JointId], ptr %2, i64 0, i64 %indvars.iv
  store i64 0, ptr %7, align 4
  %indvars.iv.next = add nuw nsw i64 %indvars.iv, 1
  %exitcond.not = icmp eq i64 %indvars.iv.next, 7
  br i1 %exitcond.not, label %3, label %5, !llvm.loop !40
}